target datalayout = "e-m:e-p270:32:32-p271:32:32-p272:64:64-i64:64-i128:128-f80:128-n8:16:32:64-S128"
target triple = "x86_64-pc-linux-gnu"

%struct.Type_ = type { i32, ptr, ptr, ptr, %union.anon, ptr, ptr, %union.anon.1 }
%union.anon = type { ptr }
%union.anon.1 = type { %struct.TypeFunction }
%struct.TypeFunction = type { ptr, ptr, ptr }
%union.SourceSpan = type { i64 }
%struct.Decl_ = type { ptr, ptr, %union.SourceSpan, i64, %union.anon.3, i32, %union.anon.4, i64, ptr, ptr, ptr, %union.anon.5 }
%union.anon.3 = type { ptr }
%union.anon.4 = type { i16 }
%union.anon.5 = type { %struct.FuncDecl }
%struct.FuncDecl = type { i32, [4 x i8], %struct.Signature_, i32, i32, %union.anon.12 }
%struct.Signature_ = type <{ %struct.CalleeAttributes, i16, i8, i32, i32, [4 x i8], ptr }>
%struct.CalleeAttributes = type { i8 }
%union.anon.12 = type { %struct.anon.13 }
%struct.anon.13 = type { i16, %union.anon.14 }
%union.anon.14 = type { ptr }
%struct.TypeArray = type { ptr, i32 }
%struct.anon.6 = type { ptr, ptr, %union.anon.7 }
%union.anon.7 = type { %struct.BitStructDecl }
%struct.BitStructDecl = type { ptr, ptr, i8 }
%struct.TypeInfo_ = type { i16, ptr, %union.SourceSpan, %union.anon.54 }
%union.anon.54 = type { %struct.anon.55 }
%struct.anon.55 = type { ptr, ptr }

@.str = private unnamed_addr constant [36 x i8] c"FATAL ERROR %s -> in %s @ in %s:%d \00", align 1
@.str.2 = private unnamed_addr constant [106 x i8] c"generated/home/dtcxzyw/WorkSpace/Projects/compilers/llvm-opt-benchmark/bench/c3c/c3c/src/compiler/types.c\00", align 1
@.str.17 = private unnamed_addr constant [22 x i8] c"Should be unreachable\00", align 1
@__func__.type_is_valid_for_array = private unnamed_addr constant [24 x i8] c"type_is_valid_for_array\00", align 1

; Function Attrs: nounwind uwtable
define dso_local zeroext i1 @type_is_valid_for_array(ptr noundef %0) #0 {
  %2 = alloca i1, align 1
  %3 = alloca ptr, align 8
  store ptr %0, ptr %3, align 8
  br label %4

4:                                                ; preds = %22, %18, %8, %1
  %5 = load ptr, ptr %3, align 8
  %6 = getelementptr inbounds %struct.Type_, ptr %5, i32 0, i32 0
  %7 = load i32, ptr %6, align 8
  switch i32 %7, label %28 [
    i32 32, label %8
    i32 19, label %17
    i32 20, label %17
    i32 21, label %17
    i32 22, label %17
    i32 23, label %17
    i32 24, label %17
    i32 25, label %17
    i32 26, label %17
    i32 27, label %17
    i32 29, label %17
    i32 30, label %17
    i32 3, label %17
    i32 4, label %17
    i32 5, label %17
    i32 6, label %17
    i32 7, label %17
    i32 8, label %17
    i32 9, label %17
    i32 10, label %17
    i32 11, label %17
    i32 12, label %17
    i32 14, label %17
    i32 13, label %17
    i32 15, label %17
    i32 16, label %17
    i32 17, label %17
    i32 2, label %17
    i32 33, label %17
    i32 34, label %17
    i32 37, label %17
    i32 31, label %18
    i32 35, label %22
    i32 36, label %22
    i32 38, label %22
    i32 39, label %27
    i32 40, label %27
    i32 41, label %27
    i32 42, label %27
    i32 43, label %27
    i32 0, label %27
    i32 1, label %27
    i32 18, label %27
    i32 28, label %27
  ]

8:                                                ; preds = %4
  %9 = load ptr, ptr %3, align 8
  %10 = getelementptr inbounds %struct.Type_, ptr %9, i32 0, i32 7
  %11 = load ptr, ptr %10, align 8
  %12 = getelementptr inbounds %struct.Decl_, ptr %11, i32 0, i32 11
  %13 = getelementptr inbounds %struct.anon.6, ptr %12, i32 0, i32 2
  %14 = load ptr, ptr %13, align 8
  %15 = getelementptr inbounds %struct.TypeInfo_, ptr %14, i32 0, i32 1
  %16 = load ptr, ptr %15, align 8
  store ptr %16, ptr %3, align 8
  br label %4

17:                                               ; preds = %4, %4, %4, %4, %4, %4, %4, %4, %4, %4, %4, %4, %4, %4, %4, %4, %4, %4, %4, %4, %4, %4, %4, %4, %4, %4, %4, %4, %4, %4
  store i1 true, ptr %2, align 1
  br label %30

18:                                               ; preds = %4
  %19 = load ptr, ptr %3, align 8
  %20 = getelementptr inbounds %struct.Type_, ptr %19, i32 0, i32 1
  %21 = load ptr, ptr %20, align 8
  store ptr %21, ptr %3, align 8
  br label %4

22:                                               ; preds = %4, %4, %4
  %23 = load ptr, ptr %3, align 8
  %24 = getelementptr inbounds %struct.Type_, ptr %23, i32 0, i32 7
  %25 = getelementptr inbounds %struct.TypeArray, ptr %24, i32 0, i32 0
  %26 = load ptr, ptr %25, align 8
  store ptr %26, ptr %3, align 8
  br label %4

27:                                               ; preds = %4, %4, %4, %4, %4, %4, %4, %4, %4
  store i1 false, ptr %2, align 1
  br label %30

28:                                               ; preds = %4
  br label %29

29:                                               ; preds = %28
  call void (ptr, ...) @error_exit(ptr noundef @.str, ptr noundef @.str.17, ptr noundef @__func__.type_is_valid_for_array, ptr noundef @.str.2, i32 noundef 1199) #7
  unreachable

30:                                               ; preds = %27, %17
  %31 = load i1, ptr %2, align 1
  ret i1 %31
}