; Function Attrs: nounwind uwtable
define dso_local noundef zeroext i1 @type_is_valid_for_array(ptr nocapture noundef readonly %0) local_unnamed_addr #0 {
  br label %2

2:                                                ; preds = %.backedge, %1
  %.0 = phi ptr [ %0, %1 ], [ %.0.be, %.backedge ]
  %3 = load i32, ptr %.0, align 8
  switch i32 %3, label %14 [
    i32 32, label %4
    i32 19, label %.loopexit.loopexit
    i32 20, label %.loopexit.loopexit
    i32 21, label %.loopexit.loopexit
    i32 22, label %.loopexit.loopexit
    i32 23, label %.loopexit.loopexit
    i32 24, label %.loopexit.loopexit
    i32 25, label %.loopexit.loopexit
    i32 26, label %.loopexit.loopexit
    i32 27, label %.loopexit.loopexit
    i32 29, label %.loopexit.loopexit
    i32 30, label %.loopexit.loopexit
    i32 3, label %.loopexit.loopexit
    i32 4, label %.loopexit.loopexit
    i32 5, label %.loopexit.loopexit
    i32 6, label %.loopexit.loopexit
    i32 7, label %.loopexit.loopexit
    i32 8, label %.loopexit.loopexit
    i32 9, label %.loopexit.loopexit
    i32 10, label %.loopexit.loopexit
    i32 11, label %.loopexit.loopexit
    i32 12, label %.loopexit.loopexit
    i32 14, label %.loopexit.loopexit
    i32 13, label %.loopexit.loopexit
    i32 15, label %.loopexit.loopexit
    i32 16, label %.loopexit.loopexit
    i32 17, label %.loopexit.loopexit
    i32 2, label %.loopexit.loopexit
    i32 33, label %.loopexit.loopexit
    i32 34, label %.loopexit.loopexit
    i32 37, label %.loopexit.loopexit
    i32 31, label %10
    i32 35, label %12
    i32 36, label %12
    i32 38, label %12
    i32 39, label %.loopexit
    i32 40, label %.loopexit
    i32 41, label %.loopexit
    i32 42, label %.loopexit
    i32 43, label %.loopexit
    i32 0, label %.loopexit
    i32 1, label %.loopexit
    i32 18, label %.loopexit
    i32 28, label %.loopexit
  ]

4:                                                ; preds = %2
  %5 = getelementptr inbounds i8, ptr %.0, i64 56
  %6 = load ptr, ptr %5, align 8
  %7 = getelementptr inbounds i8, ptr %6, i64 96
  %8 = load ptr, ptr %7, align 8
  %9 = getelementptr inbounds i8, ptr %8, i64 8
  br label %.backedge

.backedge:                                        ; preds = %4, %10, %12
  %.0.be.in = phi ptr [ %13, %12 ], [ %11, %10 ], [ %9, %4 ]
  %.0.be = load ptr, ptr %.0.be.in, align 8
  br label %2

10:                                               ; preds = %2
  %11 = getelementptr inbounds i8, ptr %.0, i64 8
  br label %.backedge

12:                                               ; preds = %2, %2, %2
  %13 = getelementptr inbounds i8, ptr %.0, i64 56
  br label %.backedge

14:                                               ; preds = %2
  tail call void (ptr, ...) @error_exit(ptr noundef nonnull @.str, ptr noundef nonnull @.str.17, ptr noundef nonnull @__func__.type_is_valid_for_array, ptr noundef nonnull @.str.2, i32 noundef 1199) #13
  unreachable

.loopexit.loopexit:                               ; preds = %2, %2, %2, %2, %2, %2, %2, %2, %2, %2, %2, %2, %2, %2, %2, %2, %2, %2, %2, %2, %2, %2, %2, %2, %2, %2, %2, %2, %2, %2
  br label %.loopexit

.loopexit:                                        ; preds = %2, %2, %2, %2, %2, %2, %2, %2, %2, %.loopexit.loopexit
  %.05 = phi i1 [ true, %.loopexit.loopexit ], [ false, %2 ], [ false, %2 ], [ false, %2 ], [ false, %2 ], [ false, %2 ], [ false, %2 ], [ false, %2 ], [ false, %2 ], [ false, %2 ]
  ret i1 %.05
}